; Function Attrs: mustprogress nounwind uwtable
define hidden void @_ZN13TemplateTable7if_0cmpENS_9ConditionE(i32 noundef %0) local_unnamed_addr #0 align 2 {
  %2 = alloca %class.Label, align 8
  tail call void @_ZN13TemplateTable10transitionE8TosStateS0_(i32 noundef 4, i32 noundef 9) #8
  store i32 -1, ptr %2, align 8
  %3 = getelementptr inbounds i8, ptr %2, i64 20
  store i32 0, ptr %3, align 4
  %4 = getelementptr inbounds i8, ptr %2, i64 24
  store ptr null, ptr %4, align 8
  %5 = getelementptr inbounds i8, ptr %2, i64 32
  store i8 0, ptr %5, align 8
  %6 = load ptr, ptr @_ZN13TemplateTable5_masmE, align 8
  %7 = load i8, ptr @PrintInterpreter, align 1
  %8 = trunc i8 %7 to i1
  br i1 %8, label %9, label %_ZN12Disassembler4hookI25InterpreterMacroAssemblerEEPT_PKciS3_.exit

9:                                                ; preds = %1
  tail call void @_ZN12Disassembler5_hookEPKciP14MacroAssembler(ptr noundef nonnull @.str, i32 noundef 2309, ptr noundef %6) #8
  br label %_ZN12Disassembler4hookI25InterpreterMacroAssemblerEEPT_PKciS3_.exit

_ZN12Disassembler4hookI25InterpreterMacroAssemblerEEPT_PKciS3_.exit: ; preds = %1, %9
  tail call void @_ZN9Assembler5testlE8RegisterS0_(ptr noundef nonnull align 8 dereferenceable(40) %6, i32 0, i32 0) #8
  %10 = load ptr, ptr @_ZN13TemplateTable5_masmE, align 8
  %11 = load i8, ptr @PrintInterpreter, align 1
  %12 = trunc i8 %11 to i1
  br i1 %12, label %13, label %_ZN12Disassembler4hookI25InterpreterMacroAssemblerEEPT_PKciS3_.exit3

13:                                               ; preds = %_ZN12Disassembler4hookI25InterpreterMacroAssemblerEEPT_PKciS3_.exit
  tail call void @_ZN12Disassembler5_hookEPKciP14MacroAssembler(ptr noundef nonnull @.str, i32 noundef 2310, ptr noundef %10) #8
  br label %_ZN12Disassembler4hookI25InterpreterMacroAssemblerEEPT_PKciS3_.exit3

_ZN12Disassembler4hookI25InterpreterMacroAssemblerEEPT_PKciS3_.exit3: ; preds = %_ZN12Disassembler4hookI25InterpreterMacroAssemblerEEPT_PKciS3_.exit, %13
  %14 = icmp ult i32 %0, 6
  br i1 %14, label %switch.lookup, label %15

15:                                               ; preds = %_ZN12Disassembler4hookI25InterpreterMacroAssemblerEEPT_PKciS3_.exit3
  %16 = load ptr, ptr @g_assert_poison, align 8
  store i8 88, ptr %16, align 1
  tail call void @_Z28report_should_not_reach_herePKci(ptr noundef nonnull @.str, i32 noundef 144) #9
  unreachable

switch.lookup:                                    ; preds = %_ZN12Disassembler4hookI25InterpreterMacroAssemblerEEPT_PKciS3_.exit3
  %17 = zext nneg i32 %0 to i64
  %switch.gep = getelementptr inbounds [6 x i32], ptr @switch.table._ZN13TemplateTable7if_acmpENS_9ConditionE, i64 0, i64 %17
  %switch.load = load i32, ptr %switch.gep, align 4
  call void @_ZN9Assembler3jccENS_9ConditionER5Labelb(ptr noundef nonnull align 8 dereferenceable(40) %10, i32 noundef %switch.load, ptr noundef nonnull align 8 dereferenceable(33) %2, i1 noundef zeroext true) #8
  call void @_ZN13TemplateTable6branchEbb(i1 noundef zeroext false, i1 noundef zeroext false)
  %18 = load ptr, ptr @_ZN13TemplateTable5_masmE, align 8
  %19 = load i8, ptr @PrintInterpreter, align 1
  %20 = trunc i8 %19 to i1
  br i1 %20, label %21, label %_ZN12Disassembler4hookI25InterpreterMacroAssemblerEEPT_PKciS3_.exit4

21:                                               ; preds = %switch.lookup
  call void @_ZN12Disassembler5_hookEPKciP14MacroAssembler(ptr noundef nonnull @.str, i32 noundef 2312, ptr noundef %18) #8
  br label %_ZN12Disassembler4hookI25InterpreterMacroAssemblerEEPT_PKciS3_.exit4

_ZN12Disassembler4hookI25InterpreterMacroAssemblerEEPT_PKciS3_.exit4: ; preds = %switch.lookup, %21
  call void @_ZN17AbstractAssembler4bindER5Label(ptr noundef nonnull align 8 dereferenceable(24) %18, ptr noundef nonnull align 8 dereferenceable(33) %2) #8
  %22 = load ptr, ptr @_ZN13TemplateTable5_masmE, align 8
  %23 = load i8, ptr @PrintInterpreter, align 1
  %24 = trunc i8 %23 to i1
  br i1 %24, label %25, label %_ZN12Disassembler4hookI25InterpreterMacroAssemblerEEPT_PKciS3_.exit5

25:                                               ; preds = %_ZN12Disassembler4hookI25InterpreterMacroAssemblerEEPT_PKciS3_.exit4
  call void @_ZN12Disassembler5_hookEPKciP14MacroAssembler(ptr noundef nonnull @.str, i32 noundef 2313, ptr noundef %22) #8
  br label %_ZN12Disassembler4hookI25InterpreterMacroAssemblerEEPT_PKciS3_.exit5

_ZN12Disassembler4hookI25InterpreterMacroAssemblerEEPT_PKciS3_.exit5: ; preds = %_ZN12Disassembler4hookI25InterpreterMacroAssemblerEEPT_PKciS3_.exit4, %25
  call void @_ZN25InterpreterMacroAssembler24profile_not_taken_branchE8Register(ptr noundef nonnull align 8 dereferenceable(48) %22, i32 0) #8
  ret void
}